; Function Attrs: mustprogress uwtable
define noundef nonnull align 8 dereferenceable(8) ptr @_ZN7mitsubalsERNSt3__113basic_ostreamIcNS0_11char_traitsIcEEEEPKNS_6ObjectE(ptr noundef nonnull returned align 8 dereferenceable(8) %0, ptr noundef %1) local_unnamed_addr #4 personality ptr @__gxx_personality_v0 {
  %3 = alloca %"class.std::__1::basic_string", align 8
  %.not = icmp eq ptr %1, null
  br i1 %.not, label %8, label %4

4:                                                ; preds = %2
  %5 = load ptr, ptr %1, align 8
  %6 = getelementptr inbounds i8, ptr %5, i64 48
  %7 = load ptr, ptr %6, align 8
  call void %7(ptr dead_on_unwind nonnull writable sret(%"class.std::__1::basic_string") align 8 %3, ptr noundef nonnull align 8 dereferenceable(12) %1)
  br label %9

8:                                                ; preds = %2
  call void @_ZNSt3__112basic_stringIcNS_11char_traitsIcEENS_9allocatorIcEEE6__initEPKcm(ptr noundef nonnull align 8 dereferenceable(24) %3, ptr noundef nonnull @.str.3, i64 noundef 7)
  br label %9

9:                                                ; preds = %8, %4
  %10 = load i8, ptr %3, align 8
  %11 = and i8 %10, 1
  %.not.i.i.i = icmp eq i8 %11, 0
  %12 = getelementptr inbounds i8, ptr %3, i64 16
  %13 = load ptr, ptr %12, align 8
  %14 = getelementptr inbounds i8, ptr %3, i64 1
  %15 = select i1 %.not.i.i.i, ptr %14, ptr %13
  %16 = getelementptr inbounds i8, ptr %3, i64 8
  %17 = load i64, ptr %16, align 8
  %18 = lshr i8 %10, 1
  %19 = zext nneg i8 %18 to i64
  %20 = select i1 %.not.i.i.i, i64 %19, i64 %17
  %21 = invoke noundef nonnull align 8 dereferenceable(8) ptr @_ZNSt3__124__put_character_sequenceB8ne190000IcNS_11char_traitsIcEEEERNS_13basic_ostreamIT_T0_EES7_PKS4_m(ptr noundef nonnull align 8 dereferenceable(8) %0, ptr noundef %15, i64 noundef %20)
          to label %_ZNSt3__1lsB8ne190000IcNS_11char_traitsIcEENS_9allocatorIcEEEERNS_13basic_ostreamIT_T0_EES9_RKNS_12basic_stringIS6_S7_T1_EE.exit unwind label %22

_ZNSt3__1lsB8ne190000IcNS_11char_traitsIcEENS_9allocatorIcEEEERNS_13basic_ostreamIT_T0_EES9_RKNS_12basic_stringIS6_S7_T1_EE.exit: ; preds = %9
  call void @_ZNSt3__112basic_stringIcNS_11char_traitsIcEENS_9allocatorIcEEED1Ev(ptr noundef nonnull align 8 dereferenceable(24) %3) #17
  ret ptr %0

22:                                               ; preds = %9
  %23 = landingpad { ptr, i32 }
          cleanup
  call void @_ZNSt3__112basic_stringIcNS_11char_traitsIcEENS_9allocatorIcEEED1Ev(ptr noundef nonnull align 8 dereferenceable(24) %3) #17
  resume { ptr, i32 } %23
}